target datalayout = "e-m:e-p270:32:32-p271:32:32-p272:64:64-i64:64-i128:128-f80:128-n8:16:32:64-S128"
target triple = "x86_64-pc-linux-gnu"

%struct.DdManager = type { %struct.DdNode, ptr, ptr, ptr, ptr, ptr, ptr, ptr, i32, i32, double, double, double, i32, i32, i32, i32, i32, i32, ptr, ptr, %struct.DdSubtable, i32, i32, i32, i32, i32, i32, i32, double, i32, i32, i32, ptr, i64, double, i32, ptr, ptr, ptr, ptr, ptr, ptr, ptr, i32, ptr, ptr, ptr, ptr, ptr, ptr, i32, i32, i32, double, i32, i32, i32, i32, double, double, i32, i32, i32, i32, i32, i32, i32, i32, i32, ptr, ptr, i32, i32, i32, i32, i32, i32, ptr, ptr, ptr, ptr, ptr, ptr, ptr, ptr, i32, i64, i64, i64, i32, i64, i64, double, double, double, double, double, double, i32, ptr, ptr, i64 }
%struct.DdNode = type { i32, i32, ptr, %union.anon, i64 }
%union.anon = type { %struct.DdChildren }
%struct.DdChildren = type { ptr, ptr }
%struct.DdSubtable = type { ptr, i32, i32, i32, i32, i32, i32, i32, i32, i32, i32, i32 }

; Function Attrs: nounwind uwtable
define ptr @Cudd_addOr(ptr noundef %0, ptr noundef %1, ptr noundef %2) #0 {
  %4 = alloca ptr, align 8
  %5 = alloca ptr, align 8
  %6 = alloca ptr, align 8
  %7 = alloca ptr, align 8
  %8 = alloca ptr, align 8
  %9 = alloca ptr, align 8
  %10 = alloca i32, align 4
  store ptr %0, ptr %5, align 8, !tbaa !3
  store ptr %1, ptr %6, align 8, !tbaa !35
  store ptr %2, ptr %7, align 8, !tbaa !35
  call void @llvm.lifetime.start.p0(i64 8, ptr %8) #4
  call void @llvm.lifetime.start.p0(i64 8, ptr %9) #4
  %11 = load ptr, ptr %6, align 8, !tbaa !35
  %12 = load ptr, ptr %11, align 8, !tbaa !9
  store ptr %12, ptr %8, align 8, !tbaa !9
  %13 = load ptr, ptr %7, align 8, !tbaa !35
  %14 = load ptr, ptr %13, align 8, !tbaa !9
  store ptr %14, ptr %9, align 8, !tbaa !9
  %15 = load ptr, ptr %8, align 8, !tbaa !9
  %16 = load ptr, ptr %5, align 8, !tbaa !3
  %17 = getelementptr inbounds nuw %struct.DdManager, ptr %16, i32 0, i32 1
  %18 = load ptr, ptr %17, align 8, !tbaa !38
  %19 = icmp eq ptr %15, %18
  br i1 %19, label %26, label %20

20:                                               ; preds = %3
  %21 = load ptr, ptr %9, align 8, !tbaa !9
  %22 = load ptr, ptr %5, align 8, !tbaa !3
  %23 = getelementptr inbounds nuw %struct.DdManager, ptr %22, i32 0, i32 1
  %24 = load ptr, ptr %23, align 8, !tbaa !38
  %25 = icmp eq ptr %21, %24
  br i1 %25, label %26, label %30

26:                                               ; preds = %20, %3
  %27 = load ptr, ptr %5, align 8, !tbaa !3
  %28 = getelementptr inbounds nuw %struct.DdManager, ptr %27, i32 0, i32 1
  %29 = load ptr, ptr %28, align 8, !tbaa !38
  store ptr %29, ptr %4, align 8
  store i32 1, ptr %10, align 4
  br label %60

30:                                               ; preds = %20
  %31 = load ptr, ptr %8, align 8, !tbaa !9
  %32 = getelementptr inbounds nuw %struct.DdNode, ptr %31, i32 0, i32 0
  %33 = load i32, ptr %32, align 8, !tbaa !30
  %34 = icmp eq i32 %33, 2147483647
  br i1 %34, label %35, label %37

35:                                               ; preds = %30
  %36 = load ptr, ptr %9, align 8, !tbaa !9
  store ptr %36, ptr %4, align 8
  store i32 1, ptr %10, align 4
  br label %60

37:                                               ; preds = %30
  %38 = load ptr, ptr %9, align 8, !tbaa !9
  %39 = getelementptr inbounds nuw %struct.DdNode, ptr %38, i32 0, i32 0
  %40 = load i32, ptr %39, align 8, !tbaa !30
  %41 = icmp eq i32 %40, 2147483647
  br i1 %41, label %42, label %44

42:                                               ; preds = %37
  %43 = load ptr, ptr %8, align 8, !tbaa !9
  store ptr %43, ptr %4, align 8
  store i32 1, ptr %10, align 4
  br label %60

44:                                               ; preds = %37
  %45 = load ptr, ptr %8, align 8, !tbaa !9
  %46 = load ptr, ptr %9, align 8, !tbaa !9
  %47 = icmp eq ptr %45, %46
  br i1 %47, label %48, label %50

48:                                               ; preds = %44
  %49 = load ptr, ptr %8, align 8, !tbaa !9
  store ptr %49, ptr %4, align 8
  store i32 1, ptr %10, align 4
  br label %60

50:                                               ; preds = %44
  %51 = load ptr, ptr %8, align 8, !tbaa !9
  %52 = load ptr, ptr %9, align 8, !tbaa !9
  %53 = icmp ugt ptr %51, %52
  br i1 %53, label %54, label %59

54:                                               ; preds = %50
  %55 = load ptr, ptr %9, align 8, !tbaa !9
  %56 = load ptr, ptr %6, align 8, !tbaa !35
  store ptr %55, ptr %56, align 8, !tbaa !9
  %57 = load ptr, ptr %8, align 8, !tbaa !9
  %58 = load ptr, ptr %7, align 8, !tbaa !35
  store ptr %57, ptr %58, align 8, !tbaa !9
  br label %59

59:                                               ; preds = %54, %50
  store ptr null, ptr %4, align 8
  store i32 1, ptr %10, align 4
  br label %60

60:                                               ; preds = %59, %48, %42, %35, %26
  call void @llvm.lifetime.end.p0(i64 8, ptr %9) #4
  call void @llvm.lifetime.end.p0(i64 8, ptr %8) #4
  %61 = load ptr, ptr %4, align 8
  ret ptr %61
}