; Function Attrs: mustprogress nofree norecurse nosync nounwind willreturn memory(read, argmem: readwrite, inaccessiblemem: none) uwtable
define ptr @Cudd_addOr(ptr noundef readonly captures(none) %0, ptr noundef captures(none) %1, ptr noundef captures(none) %2) local_unnamed_addr #3 {
  %4 = load ptr, ptr %1, align 8, !tbaa !26
  %5 = load ptr, ptr %2, align 8, !tbaa !26
  %6 = getelementptr inbounds nuw i8, ptr %0, i64 40
  %7 = load ptr, ptr %6, align 8, !tbaa !33
  %8 = icmp eq ptr %4, %7
  %9 = icmp eq ptr %5, %7
  %or.cond = select i1 %8, i1 true, i1 %9
  br i1 %or.cond, label %20, label %10

10:                                               ; preds = %3
  %11 = load i32, ptr %4, align 8, !tbaa !27
  %12 = icmp eq i32 %11, 2147483647
  br i1 %12, label %20, label %13

13:                                               ; preds = %10
  %14 = load i32, ptr %5, align 8, !tbaa !27
  %15 = icmp eq i32 %14, 2147483647
  %16 = icmp eq ptr %4, %5
  %or.cond24 = select i1 %15, i1 true, i1 %16
  br i1 %or.cond24, label %20, label %17

17:                                               ; preds = %13
  %18 = icmp ugt ptr %4, %5
  br i1 %18, label %19, label %20

19:                                               ; preds = %17
  store ptr %5, ptr %1, align 8, !tbaa !26
  store ptr %4, ptr %2, align 8, !tbaa !26
  br label %20

20:                                               ; preds = %3, %17, %19, %13, %10
  %.0 = phi ptr [ %5, %10 ], [ %4, %13 ], [ null, %19 ], [ null, %17 ], [ %7, %3 ]
  ret ptr %.0
}